; Function Attrs: nounwind sspstrong uwtable
define internal i32 @blkdebug_co_flush(ptr noundef readonly captures(none) %bs) #0 {
entry:
  %call = tail call i32 @rule_check(ptr noundef %bs, i64 noundef 0, i64 noundef 0, i32 noundef 4)
  %tobool.not = icmp eq i32 %call, 0
  br i1 %tobool.not, label %if.end, label %return

if.end:                                           ; preds = %entry
  %file = getelementptr inbounds nuw i8, ptr %bs, i64 16840
  %0 = load ptr, ptr %file, align 8
  %1 = load ptr, ptr %0, align 8
  %call2 = tail call i32 @bdrv_co_flush(ptr noundef %1) #13
  br label %return

return:                                           ; preds = %entry, %if.end
  %retval.0 = phi i32 [ %call2, %if.end ], [ %call, %entry ]
  ret i32 %retval.0
}